target datalayout = "e-m:e-p270:32:32-p271:32:32-p272:64:64-i64:64-i128:128-f80:128-n8:16:32:64-S128"
target triple = "x86_64-pc-linux-gnu"

@_ZN11duckdb_zstdL5g_oneE = internal constant i32 1, align 4

; Function Attrs: mustprogress nounwind uwtable
define internal noundef i32 @_ZN11duckdb_zstdL10XXH_swap32Ej(i32 noundef %0) #0 {
  %2 = alloca i32, align 4
  store i32 %0, ptr %2, align 4, !tbaa !13
  %3 = load i32, ptr %2, align 4, !tbaa !13
  %4 = shl i32 %3, 24
  %5 = and i32 %4, -16777216
  %6 = load i32, ptr %2, align 4, !tbaa !13
  %7 = shl i32 %6, 8
  %8 = and i32 %7, 16711680
  %9 = or i32 %5, %8
  %10 = load i32, ptr %2, align 4, !tbaa !13
  %11 = lshr i32 %10, 8
  %12 = and i32 %11, 65280
  %13 = or i32 %9, %12
  %14 = load i32, ptr %2, align 4, !tbaa !13
  %15 = lshr i32 %14, 24
  %16 = and i32 %15, 255
  %17 = or i32 %13, %16
  ret i32 %17
}

; Function Attrs: mustprogress nounwind uwtable
define internal noundef i32 @_ZN11duckdb_zstdL10XXH_read32EPKv(ptr noundef %0) #0 {
  %2 = alloca ptr, align 8
  %3 = alloca i32, align 4
  store ptr %0, ptr %2, align 8, !tbaa !10
  call void @llvm.lifetime.start.p0(i64 4, ptr %3) #8
  %4 = load ptr, ptr %2, align 8, !tbaa !10
  call void @llvm.memcpy.p0.p0.i64(ptr align 4 %3, ptr align 1 %4, i64 4, i1 false)
  %5 = load i32, ptr %3, align 4, !tbaa !13
  call void @llvm.lifetime.end.p0(i64 4, ptr %3) #8
  ret i32 %5
}

; Function Attrs: mustprogress nounwind uwtable
define internal noundef i32 @_ZN11duckdb_zstdL11XXH32_roundEjj(i32 noundef %0, i32 noundef %1) #0 {
  %3 = alloca i32, align 4
  %4 = alloca i32, align 4
  store i32 %0, ptr %3, align 4, !tbaa !13
  store i32 %1, ptr %4, align 4, !tbaa !13
  %5 = load i32, ptr %4, align 4, !tbaa !13
  %6 = mul i32 %5, -2048144777
  %7 = load i32, ptr %3, align 4, !tbaa !13
  %8 = add i32 %7, %6
  store i32 %8, ptr %3, align 4, !tbaa !13
  %9 = load i32, ptr %3, align 4, !tbaa !13
  %10 = shl i32 %9, 13
  %11 = load i32, ptr %3, align 4, !tbaa !13
  %12 = lshr i32 %11, 19
  %13 = or i32 %10, %12
  store i32 %13, ptr %3, align 4, !tbaa !13
  %14 = load i32, ptr %3, align 4, !tbaa !13
  %15 = mul i32 %14, -1640531535
  store i32 %15, ptr %3, align 4, !tbaa !13
  %16 = load i32, ptr %3, align 4, !tbaa !13
  ret i32 %16
}

; Function Attrs: alwaysinline mustprogress uwtable
define internal noundef i32 @_ZN11duckdb_zstdL18XXH_readLE32_alignEPKvNS_13XXH_endianessENS_13XXH_alignmentE(ptr noundef %0, i32 noundef %1, i32 noundef %2) #4 {
  %4 = alloca i32, align 4
  %5 = alloca ptr, align 8
  %6 = alloca i32, align 4
  %7 = alloca i32, align 4
  store ptr %0, ptr %5, align 8, !tbaa !10
  store i32 %1, ptr %6, align 4, !tbaa !16
  store i32 %2, ptr %7, align 4, !tbaa !18
  %8 = load i32, ptr %7, align 4, !tbaa !18
  %9 = icmp eq i32 %8, 1
  br i1 %9, label %10, label %22

10:                                               ; preds = %3
  %11 = load i32, ptr %6, align 4, !tbaa !16
  %12 = icmp eq i32 %11, 1
  br i1 %12, label %13, label %16

13:                                               ; preds = %10
  %14 = load ptr, ptr %5, align 8, !tbaa !10
  %15 = call noundef i32 @_ZN11duckdb_zstdL10XXH_read32EPKv(ptr noundef %14)
  br label %20

16:                                               ; preds = %10
  %17 = load ptr, ptr %5, align 8, !tbaa !10
  %18 = call noundef i32 @_ZN11duckdb_zstdL10XXH_read32EPKv(ptr noundef %17)
  %19 = call noundef i32 @_ZN11duckdb_zstdL10XXH_swap32Ej(i32 noundef %18)
  br label %20

20:                                               ; preds = %16, %13
  %21 = phi i32 [ %15, %13 ], [ %19, %16 ]
  store i32 %21, ptr %4, align 4
  br label %34

22:                                               ; preds = %3
  %23 = load i32, ptr %6, align 4, !tbaa !16
  %24 = icmp eq i32 %23, 1
  br i1 %24, label %25, label %28

25:                                               ; preds = %22
  %26 = load ptr, ptr %5, align 8, !tbaa !10
  %27 = load i32, ptr %26, align 4, !tbaa !13
  br label %32

28:                                               ; preds = %22
  %29 = load ptr, ptr %5, align 8, !tbaa !10
  %30 = load i32, ptr %29, align 4, !tbaa !13
  %31 = call noundef i32 @_ZN11duckdb_zstdL10XXH_swap32Ej(i32 noundef %30)
  br label %32

32:                                               ; preds = %28, %25
  %33 = phi i32 [ %27, %25 ], [ %31, %28 ]
  store i32 %33, ptr %4, align 4
  br label %34

34:                                               ; preds = %32, %20
  %35 = load i32, ptr %4, align 4
  ret i32 %35
}

; Function Attrs: alwaysinline mustprogress uwtable
define internal noundef i32 @_ZN11duckdb_zstdL18XXH32_endian_alignEPKvmjNS_13XXH_endianessENS_13XXH_alignmentE(ptr noundef %0, i64 noundef %1, i32 noundef %2, i32 noundef %3, i32 noundef %4) #4 {
  %6 = alloca ptr, align 8
  %7 = alloca i64, align 8
  %8 = alloca i32, align 4
  %9 = alloca i32, align 4
  %10 = alloca i32, align 4
  %11 = alloca ptr, align 8
  %12 = alloca ptr, align 8
  %13 = alloca i32, align 4
  %14 = alloca ptr, align 8
  %15 = alloca i32, align 4
  %16 = alloca i32, align 4
  %17 = alloca i32, align 4
  %18 = alloca i32, align 4
  store ptr %0, ptr %6, align 8, !tbaa !10
  store i64 %1, ptr %7, align 8, !tbaa !11
  store i32 %2, ptr %8, align 4, !tbaa !13
  store i32 %3, ptr %9, align 4, !tbaa !16
  store i32 %4, ptr %10, align 4, !tbaa !18
  call void @llvm.lifetime.start.p0(i64 8, ptr %11) #8
  %19 = load ptr, ptr %6, align 8, !tbaa !10
  store ptr %19, ptr %11, align 8, !tbaa !20
  call void @llvm.lifetime.start.p0(i64 8, ptr %12) #8
  %20 = load ptr, ptr %11, align 8, !tbaa !20
  %21 = load i64, ptr %7, align 8, !tbaa !11
  %22 = getelementptr inbounds nuw i8, ptr %20, i64 %21
  store ptr %22, ptr %12, align 8, !tbaa !20
  call void @llvm.lifetime.start.p0(i64 4, ptr %13) #8
  %23 = load i64, ptr %7, align 8, !tbaa !11
  %24 = icmp uge i64 %23, 16
  br i1 %24, label %25, label %98

25:                                               ; preds = %5
  call void @llvm.lifetime.start.p0(i64 8, ptr %14) #8
  %26 = load ptr, ptr %12, align 8, !tbaa !20
  %27 = getelementptr inbounds i8, ptr %26, i64 -16
  store ptr %27, ptr %14, align 8, !tbaa !20
  call void @llvm.lifetime.start.p0(i64 4, ptr %15) #8
  %28 = load i32, ptr %8, align 4, !tbaa !13
  %29 = add i32 %28, -1640531535
  %30 = add i32 %29, -2048144777
  store i32 %30, ptr %15, align 4, !tbaa !13
  call void @llvm.lifetime.start.p0(i64 4, ptr %16) #8
  %31 = load i32, ptr %8, align 4, !tbaa !13
  %32 = add i32 %31, -2048144777
  store i32 %32, ptr %16, align 4, !tbaa !13
  call void @llvm.lifetime.start.p0(i64 4, ptr %17) #8
  %33 = load i32, ptr %8, align 4, !tbaa !13
  %34 = add i32 %33, 0
  store i32 %34, ptr %17, align 4, !tbaa !13
  call void @llvm.lifetime.start.p0(i64 4, ptr %18) #8
  %35 = load i32, ptr %8, align 4, !tbaa !13
  %36 = sub i32 %35, -1640531535
  store i32 %36, ptr %18, align 4, !tbaa !13
  br label %37

37:                                               ; preds = %70, %25
  %38 = load i32, ptr %15, align 4, !tbaa !13
  %39 = load ptr, ptr %11, align 8, !tbaa !20
  %40 = load i32, ptr %9, align 4, !tbaa !16
  %41 = load i32, ptr %10, align 4, !tbaa !18
  %42 = call noundef i32 @_ZN11duckdb_zstdL18XXH_readLE32_alignEPKvNS_13XXH_endianessENS_13XXH_alignmentE(ptr noundef %39, i32 noundef %40, i32 noundef %41)
  %43 = call noundef i32 @_ZN11duckdb_zstdL11XXH32_roundEjj(i32 noundef %38, i32 noundef %42)
  store i32 %43, ptr %15, align 4, !tbaa !13
  %44 = load ptr, ptr %11, align 8, !tbaa !20
  %45 = getelementptr inbounds i8, ptr %44, i64 4
  store ptr %45, ptr %11, align 8, !tbaa !20
  %46 = load i32, ptr %16, align 4, !tbaa !13
  %47 = load ptr, ptr %11, align 8, !tbaa !20
  %48 = load i32, ptr %9, align 4, !tbaa !16
  %49 = load i32, ptr %10, align 4, !tbaa !18
  %50 = call noundef i32 @_ZN11duckdb_zstdL18XXH_readLE32_alignEPKvNS_13XXH_endianessENS_13XXH_alignmentE(ptr noundef %47, i32 noundef %48, i32 noundef %49)
  %51 = call noundef i32 @_ZN11duckdb_zstdL11XXH32_roundEjj(i32 noundef %46, i32 noundef %50)
  store i32 %51, ptr %16, align 4, !tbaa !13
  %52 = load ptr, ptr %11, align 8, !tbaa !20
  %53 = getelementptr inbounds i8, ptr %52, i64 4
  store ptr %53, ptr %11, align 8, !tbaa !20
  %54 = load i32, ptr %17, align 4, !tbaa !13
  %55 = load ptr, ptr %11, align 8, !tbaa !20
  %56 = load i32, ptr %9, align 4, !tbaa !16
  %57 = load i32, ptr %10, align 4, !tbaa !18
  %58 = call noundef i32 @_ZN11duckdb_zstdL18XXH_readLE32_alignEPKvNS_13XXH_endianessENS_13XXH_alignmentE(ptr noundef %55, i32 noundef %56, i32 noundef %57)
  %59 = call noundef i32 @_ZN11duckdb_zstdL11XXH32_roundEjj(i32 noundef %54, i32 noundef %58)
  store i32 %59, ptr %17, align 4, !tbaa !13
  %60 = load ptr, ptr %11, align 8, !tbaa !20
  %61 = getelementptr inbounds i8, ptr %60, i64 4
  store ptr %61, ptr %11, align 8, !tbaa !20
  %62 = load i32, ptr %18, align 4, !tbaa !13
  %63 = load ptr, ptr %11, align 8, !tbaa !20
  %64 = load i32, ptr %9, align 4, !tbaa !16
  %65 = load i32, ptr %10, align 4, !tbaa !18
  %66 = call noundef i32 @_ZN11duckdb_zstdL18XXH_readLE32_alignEPKvNS_13XXH_endianessENS_13XXH_alignmentE(ptr noundef %63, i32 noundef %64, i32 noundef %65)
  %67 = call noundef i32 @_ZN11duckdb_zstdL11XXH32_roundEjj(i32 noundef %62, i32 noundef %66)
  store i32 %67, ptr %18, align 4, !tbaa !13
  %68 = load ptr, ptr %11, align 8, !tbaa !20
  %69 = getelementptr inbounds i8, ptr %68, i64 4
  store ptr %69, ptr %11, align 8, !tbaa !20
  br label %70

70:                                               ; preds = %37
  %71 = load ptr, ptr %11, align 8, !tbaa !20
  %72 = load ptr, ptr %14, align 8, !tbaa !20
  %73 = icmp ule ptr %71, %72
  br i1 %73, label %37, label %74, !llvm.loop !22

74:                                               ; preds = %70
  %75 = load i32, ptr %15, align 4, !tbaa !13
  %76 = shl i32 %75, 1
  %77 = load i32, ptr %15, align 4, !tbaa !13
  %78 = lshr i32 %77, 31
  %79 = or i32 %76, %78
  %80 = load i32, ptr %16, align 4, !tbaa !13
  %81 = shl i32 %80, 7
  %82 = load i32, ptr %16, align 4, !tbaa !13
  %83 = lshr i32 %82, 25
  %84 = or i32 %81, %83
  %85 = add i32 %79, %84
  %86 = load i32, ptr %17, align 4, !tbaa !13
  %87 = shl i32 %86, 12
  %88 = load i32, ptr %17, align 4, !tbaa !13
  %89 = lshr i32 %88, 20
  %90 = or i32 %87, %89
  %91 = add i32 %85, %90
  %92 = load i32, ptr %18, align 4, !tbaa !13
  %93 = shl i32 %92, 18
  %94 = load i32, ptr %18, align 4, !tbaa !13
  %95 = lshr i32 %94, 14
  %96 = or i32 %93, %95
  %97 = add i32 %91, %96
  store i32 %97, ptr %13, align 4, !tbaa !13
  call void @llvm.lifetime.end.p0(i64 4, ptr %18) #8
  call void @llvm.lifetime.end.p0(i64 4, ptr %17) #8
  call void @llvm.lifetime.end.p0(i64 4, ptr %16) #8
  call void @llvm.lifetime.end.p0(i64 4, ptr %15) #8
  call void @llvm.lifetime.end.p0(i64 8, ptr %14) #8
  br label %101

98:                                               ; preds = %5
  %99 = load i32, ptr %8, align 4, !tbaa !13
  %100 = add i32 %99, 374761393
  store i32 %100, ptr %13, align 4, !tbaa !13
  br label %101

101:                                              ; preds = %98, %74
  %102 = load i64, ptr %7, align 8, !tbaa !11
  %103 = trunc i64 %102 to i32
  %104 = load i32, ptr %13, align 4, !tbaa !13
  %105 = add i32 %104, %103
  store i32 %105, ptr %13, align 4, !tbaa !13
  br label %106

106:                                              ; preds = %111, %101
  %107 = load ptr, ptr %11, align 8, !tbaa !20
  %108 = getelementptr inbounds i8, ptr %107, i64 4
  %109 = load ptr, ptr %12, align 8, !tbaa !20
  %110 = icmp ule ptr %108, %109
  br i1 %110, label %111, label %127

111:                                              ; preds = %106
  %112 = load ptr, ptr %11, align 8, !tbaa !20
  %113 = load i32, ptr %9, align 4, !tbaa !16
  %114 = load i32, ptr %10, align 4, !tbaa !18
  %115 = call noundef i32 @_ZN11duckdb_zstdL18XXH_readLE32_alignEPKvNS_13XXH_endianessENS_13XXH_alignmentE(ptr noundef %112, i32 noundef %113, i32 noundef %114)
  %116 = mul i32 %115, -1028477379
  %117 = load i32, ptr %13, align 4, !tbaa !13
  %118 = add i32 %117, %116
  store i32 %118, ptr %13, align 4, !tbaa !13
  %119 = load i32, ptr %13, align 4, !tbaa !13
  %120 = shl i32 %119, 17
  %121 = load i32, ptr %13, align 4, !tbaa !13
  %122 = lshr i32 %121, 15
  %123 = or i32 %120, %122
  %124 = mul i32 %123, 668265263
  store i32 %124, ptr %13, align 4, !tbaa !13
  %125 = load ptr, ptr %11, align 8, !tbaa !20
  %126 = getelementptr inbounds i8, ptr %125, i64 4
  store ptr %126, ptr %11, align 8, !tbaa !20
  br label %106, !llvm.loop !24

127:                                              ; preds = %106
  br label %128

128:                                              ; preds = %132, %127
  %129 = load ptr, ptr %11, align 8, !tbaa !20
  %130 = load ptr, ptr %12, align 8, !tbaa !20
  %131 = icmp ult ptr %129, %130
  br i1 %131, label %132, label %147

132:                                              ; preds = %128
  %133 = load ptr, ptr %11, align 8, !tbaa !20
  %134 = load i8, ptr %133, align 1, !tbaa !15
  %135 = zext i8 %134 to i32
  %136 = mul i32 %135, 374761393
  %137 = load i32, ptr %13, align 4, !tbaa !13
  %138 = add i32 %137, %136
  store i32 %138, ptr %13, align 4, !tbaa !13
  %139 = load i32, ptr %13, align 4, !tbaa !13
  %140 = shl i32 %139, 11
  %141 = load i32, ptr %13, align 4, !tbaa !13
  %142 = lshr i32 %141, 21
  %143 = or i32 %140, %142
  %144 = mul i32 %143, -1640531535
  store i32 %144, ptr %13, align 4, !tbaa !13
  %145 = load ptr, ptr %11, align 8, !tbaa !20
  %146 = getelementptr inbounds nuw i8, ptr %145, i32 1
  store ptr %146, ptr %11, align 8, !tbaa !20
  br label %128, !llvm.loop !25

147:                                              ; preds = %128
  %148 = load i32, ptr %13, align 4, !tbaa !13
  %149 = lshr i32 %148, 15
  %150 = load i32, ptr %13, align 4, !tbaa !13
  %151 = xor i32 %150, %149
  store i32 %151, ptr %13, align 4, !tbaa !13
  %152 = load i32, ptr %13, align 4, !tbaa !13
  %153 = mul i32 %152, -2048144777
  store i32 %153, ptr %13, align 4, !tbaa !13
  %154 = load i32, ptr %13, align 4, !tbaa !13
  %155 = lshr i32 %154, 13
  %156 = load i32, ptr %13, align 4, !tbaa !13
  %157 = xor i32 %156, %155
  store i32 %157, ptr %13, align 4, !tbaa !13
  %158 = load i32, ptr %13, align 4, !tbaa !13
  %159 = mul i32 %158, -1028477379
  store i32 %159, ptr %13, align 4, !tbaa !13
  %160 = load i32, ptr %13, align 4, !tbaa !13
  %161 = lshr i32 %160, 16
  %162 = load i32, ptr %13, align 4, !tbaa !13
  %163 = xor i32 %162, %161
  store i32 %163, ptr %13, align 4, !tbaa !13
  %164 = load i32, ptr %13, align 4, !tbaa !13
  call void @llvm.lifetime.end.p0(i64 4, ptr %13) #8
  call void @llvm.lifetime.end.p0(i64 8, ptr %12) #8
  call void @llvm.lifetime.end.p0(i64 8, ptr %11) #8
  ret i32 %164
}

; Function Attrs: mustprogress uwtable
define noundef i32 @_ZN11duckdb_zstd5XXH32EPKvmj(ptr noundef %0, i64 noundef %1, i32 noundef %2) #2 {
  %4 = alloca i32, align 4
  %5 = alloca ptr, align 8
  %6 = alloca i64, align 8
  %7 = alloca i32, align 4
  %8 = alloca i32, align 4
  %9 = alloca i32, align 4
  store ptr %0, ptr %5, align 8, !tbaa !10
  store i64 %1, ptr %6, align 8, !tbaa !11
  store i32 %2, ptr %7, align 4, !tbaa !13
  call void @llvm.lifetime.start.p0(i64 4, ptr %8) #8
  %10 = load i8, ptr @_ZN11duckdb_zstdL5g_oneE, align 4, !tbaa !15
  %11 = sext i8 %10 to i32
  store i32 %11, ptr %8, align 4, !tbaa !16
  %12 = load i32, ptr %8, align 4, !tbaa !16
  %13 = icmp eq i32 %12, 1
  br i1 %13, label %14, label %19

14:                                               ; preds = %3
  %15 = load ptr, ptr %5, align 8, !tbaa !10
  %16 = load i64, ptr %6, align 8, !tbaa !11
  %17 = load i32, ptr %7, align 4, !tbaa !13
  %18 = call noundef i32 @_ZN11duckdb_zstdL18XXH32_endian_alignEPKvmjNS_13XXH_endianessENS_13XXH_alignmentE(ptr noundef %15, i64 noundef %16, i32 noundef %17, i32 noundef 1, i32 noundef 1)
  store i32 %18, ptr %4, align 4
  store i32 1, ptr %9, align 4
  br label %24

19:                                               ; preds = %3
  %20 = load ptr, ptr %5, align 8, !tbaa !10
  %21 = load i64, ptr %6, align 8, !tbaa !11
  %22 = load i32, ptr %7, align 4, !tbaa !13
  %23 = call noundef i32 @_ZN11duckdb_zstdL18XXH32_endian_alignEPKvmjNS_13XXH_endianessENS_13XXH_alignmentE(ptr noundef %20, i64 noundef %21, i32 noundef %22, i32 noundef 0, i32 noundef 1)
  store i32 %23, ptr %4, align 4
  store i32 1, ptr %9, align 4
  br label %24

24:                                               ; preds = %19, %14
  call void @llvm.lifetime.end.p0(i64 4, ptr %8) #8
  %25 = load i32, ptr %4, align 4
  ret i32 %25
}