; Function Attrs: mustprogress nofree norecurse nosync nounwind willreturn memory(argmem: read) uwtable
define noundef i32 @_ZN11duckdb_zstd5XXH32EPKvmj(ptr noundef readonly captures(address) %0, i64 noundef %1, i32 noundef %2) local_unnamed_addr #3 {
  %4 = getelementptr inbounds nuw i8, ptr %0, i64 %1
  %5 = icmp ugt i64 %1, 15
  br i1 %5, label %6, label %40

6:                                                ; preds = %3
  %7 = getelementptr inbounds i8, ptr %4, i64 -16
  %8 = add i32 %2, 606290984
  %9 = add i32 %2, -2048144777
  %10 = add i32 %2, 1640531535
  br label %11

11:                                               ; preds = %11, %6
  %.069.i = phi ptr [ %0, %6 ], [ %31, %11 ]
  %.068.i = phi i32 [ %8, %6 ], [ %15, %11 ]
  %.067.i = phi i32 [ %9, %6 ], [ %20, %11 ]
  %.066.i = phi i32 [ %2, %6 ], [ %25, %11 ]
  %.0.i = phi i32 [ %10, %6 ], [ %30, %11 ]
  %.069.i.val = load i32, ptr %.069.i, align 1
  %12 = mul i32 %.069.i.val, -2048144777
  %13 = add i32 %12, %.068.i
  %14 = tail call i32 @llvm.fshl.i32(i32 %13, i32 %13, i32 13)
  %15 = mul i32 %14, -1640531535
  %16 = getelementptr inbounds nuw i8, ptr %.069.i, i64 4
  %.val = load i32, ptr %16, align 1
  %17 = mul i32 %.val, -2048144777
  %18 = add i32 %17, %.067.i
  %19 = tail call i32 @llvm.fshl.i32(i32 %18, i32 %18, i32 13)
  %20 = mul i32 %19, -1640531535
  %21 = getelementptr inbounds nuw i8, ptr %.069.i, i64 8
  %.val7 = load i32, ptr %21, align 1
  %22 = mul i32 %.val7, -2048144777
  %23 = add i32 %22, %.066.i
  %24 = tail call i32 @llvm.fshl.i32(i32 %23, i32 %23, i32 13)
  %25 = mul i32 %24, -1640531535
  %26 = getelementptr inbounds nuw i8, ptr %.069.i, i64 12
  %.val8 = load i32, ptr %26, align 1
  %27 = mul i32 %.val8, -2048144777
  %28 = add i32 %27, %.0.i
  %29 = tail call i32 @llvm.fshl.i32(i32 %28, i32 %28, i32 13)
  %30 = mul i32 %29, -1640531535
  %31 = getelementptr inbounds nuw i8, ptr %.069.i, i64 16
  %.not.i = icmp ugt ptr %31, %7
  br i1 %.not.i, label %32, label %11, !llvm.loop !3

32:                                               ; preds = %11
  %33 = tail call i32 @llvm.fshl.i32(i32 %15, i32 %15, i32 1)
  %34 = tail call i32 @llvm.fshl.i32(i32 %20, i32 %20, i32 7)
  %35 = add i32 %34, %33
  %36 = tail call i32 @llvm.fshl.i32(i32 %25, i32 %25, i32 12)
  %37 = add i32 %35, %36
  %38 = tail call i32 @llvm.fshl.i32(i32 %30, i32 %30, i32 18)
  %39 = add i32 %37, %38
  br label %42

40:                                               ; preds = %3
  %41 = add i32 %2, 374761393
  br label %42

42:                                               ; preds = %40, %32
  %.070.i = phi i32 [ %39, %32 ], [ %41, %40 ]
  %.1.i = phi ptr [ %31, %32 ], [ %0, %40 ]
  %43 = trunc i64 %1 to i32
  %44 = add i32 %.070.i, %43
  %45 = getelementptr inbounds nuw i8, ptr %.1.i, i64 4
  %.not75.i13 = icmp ugt ptr %45, %4
  br i1 %.not75.i13, label %.preheader, label %.lr.ph

.preheader:                                       ; preds = %.lr.ph, %42
  %.171.i.lcssa = phi i32 [ %44, %42 ], [ %51, %.lr.ph ]
  %.2.i.lcssa = phi ptr [ %.1.i, %42 ], [ %47, %.lr.ph ]
  %46 = icmp ult ptr %.2.i.lcssa, %4
  br i1 %46, label %.lr.ph19, label %_ZN11duckdb_zstdL18XXH32_endian_alignEPKvmjNS_13XXH_endianessENS_13XXH_alignmentE.exit

.lr.ph:                                           ; preds = %42, %.lr.ph
  %47 = phi ptr [ %52, %.lr.ph ], [ %45, %42 ]
  %.2.i15 = phi ptr [ %47, %.lr.ph ], [ %.1.i, %42 ]
  %.171.i14 = phi i32 [ %51, %.lr.ph ], [ %44, %42 ]
  %.2.i.val = load i32, ptr %.2.i15, align 1
  %48 = mul i32 %.2.i.val, -1028477379
  %49 = add i32 %48, %.171.i14
  %50 = tail call i32 @llvm.fshl.i32(i32 %49, i32 %49, i32 17)
  %51 = mul i32 %50, 668265263
  %52 = getelementptr inbounds nuw i8, ptr %47, i64 4
  %.not75.i = icmp ugt ptr %52, %4
  br i1 %.not75.i, label %.preheader, label %.lr.ph, !llvm.loop !5

.lr.ph19:                                         ; preds = %.preheader, %.lr.ph19
  %.3.i18 = phi ptr [ %59, %.lr.ph19 ], [ %.2.i.lcssa, %.preheader ]
  %.272.i17 = phi i32 [ %58, %.lr.ph19 ], [ %.171.i.lcssa, %.preheader ]
  %53 = load i8, ptr %.3.i18, align 1, !tbaa !6
  %54 = zext i8 %53 to i32
  %55 = mul i32 %54, 374761393
  %56 = add i32 %55, %.272.i17
  %57 = tail call i32 @llvm.fshl.i32(i32 %56, i32 %56, i32 11)
  %58 = mul i32 %57, -1640531535
  %59 = getelementptr inbounds nuw i8, ptr %.3.i18, i64 1
  %60 = icmp ult ptr %59, %4
  br i1 %60, label %.lr.ph19, label %_ZN11duckdb_zstdL18XXH32_endian_alignEPKvmjNS_13XXH_endianessENS_13XXH_alignmentE.exit, !llvm.loop !9

_ZN11duckdb_zstdL18XXH32_endian_alignEPKvmjNS_13XXH_endianessENS_13XXH_alignmentE.exit: ; preds = %.lr.ph19, %.preheader
  %.272.i.lcssa = phi i32 [ %.171.i.lcssa, %.preheader ], [ %58, %.lr.ph19 ]
  %61 = lshr i32 %.272.i.lcssa, 15
  %62 = xor i32 %61, %.272.i.lcssa
  %63 = mul i32 %62, -2048144777
  %64 = lshr i32 %63, 13
  %65 = xor i32 %64, %63
  %66 = mul i32 %65, -1028477379
  %67 = lshr i32 %66, 16
  %68 = xor i32 %67, %66
  ret i32 %68
}